; Function Attrs: nounwind sspstrong uwtable
define internal void @vfio_req_notifier_handler(ptr noundef %0) #0 {
  %2 = alloca ptr, align 8
  call void @llvm.lifetime.start.p0(i64 8, ptr nonnull %2) #26
  store ptr null, ptr %2, align 8
  %3 = getelementptr inbounds nuw i8, ptr %0, i64 3684
  %4 = tail call i32 @event_notifier_test_and_clear(ptr noundef nonnull %3) #26
  %.not = icmp eq i32 %4, 0
  br i1 %.not, label %11, label %5

5:                                                ; preds = %1
  %6 = tail call ptr @object_dynamic_cast_assert(ptr noundef nonnull %0, ptr noundef nonnull @.str.83, ptr noundef nonnull @.str.84, i32 noundef 77, ptr noundef nonnull @__func__.DEVICE) #26
  call void @qdev_unplug(ptr noundef %6, ptr noundef nonnull %2) #26
  %7 = load ptr, ptr %2, align 8
  %.not4 = icmp eq ptr %7, null
  br i1 %.not4, label %11, label %8

8:                                                ; preds = %5
  %9 = getelementptr inbounds nuw i8, ptr %0, i64 2824
  %10 = load ptr, ptr %9, align 8
  call void (ptr, ptr, ...) @warn_reportf_err(ptr noundef nonnull %7, ptr noundef nonnull @.str.7, ptr noundef %10) #26
  br label %11

11:                                               ; preds = %5, %8, %1
  call void @llvm.lifetime.end.p0(i64 8, ptr nonnull %2) #26
  ret void
}